ccopy_reg
_reconstructor
p0
(c__main__
Result
p1
c__builtin__
object
p2
Ntp3
Rp4
(dp5
S'cars'
p6
(lp7
((I18
I18
tp8
(I13
I14
tp9
tp10
a((I18
I17
tp11
(I28
I15
tp12
tp13
a((I29
I15
tp14
(I29
I14
tp15
tp16
a((I18
I16
tp17
g14
tp18
a((I18
I9
tp19
(I19
I22
tp20
tp21
a((I30
I15
tp22
(I18
I8
tp23
tp24
a((I15
I15
tp25
(I11
I14
tp26
tp27
a((I17
I14
tp28
(I19
I5
tp29
tp30
a((I9
I15
tp31
(I18
I21
tp32
tp33
a((I28
I14
tp34
(I16
I15
tp35
tp36
asS'layout'
p37
S'single_cross'
p38
sb.